target datalayout = "e-m:e-p270:32:32-p271:32:32-p272:64:64-i64:64-i128:128-f80:128-n8:16:32:64-S128"
target triple = "x86_64-pc-linux-gnu"

%struct.Aig_Man_t_ = type { ptr, ptr, ptr, ptr, ptr, ptr, ptr, %struct.Aig_Obj_t_, i32, i32, i32, i32, i32, i32, [7 x i32], i32, ptr, i32, ptr, i32, ptr, i32, i32, i32, ptr, i32, i32, i32, i32, i32, ptr, ptr, i32, ptr, ptr, i32, ptr, ptr, i32, i32, i32, ptr, ptr, ptr, ptr, ptr, ptr, ptr, ptr, ptr, ptr, ptr, ptr, ptr, ptr, i32, ptr, ptr, ptr, ptr, i32, i64, i64, i64, ptr, ptr }
%struct.Aig_Obj_t_ = type { %union.anon, ptr, ptr, i64, i32, i32, %union.anon.0 }
%union.anon = type { ptr }
%union.anon.0 = type { ptr }
%struct.Vec_Int_t_ = type { i32, i32, ptr }
%struct.Abc_Cex_t_ = type { i32, i32, i32, i32, i32, [0 x i32] }

; Function Attrs: nounwind uwtable
define internal void @Abc_InfoSetBit(ptr noundef %0, i32 noundef %1) #0 {
  %3 = alloca ptr, align 8
  %4 = alloca i32, align 4
  store ptr %0, ptr %3, align 8
  store i32 %1, ptr %4, align 4
  %5 = load i32, ptr %4, align 4
  %6 = and i32 %5, 31
  %7 = shl i32 1, %6
  %8 = load ptr, ptr %3, align 8
  %9 = load i32, ptr %4, align 4
  %10 = ashr i32 %9, 5
  %11 = sext i32 %10 to i64
  %12 = getelementptr inbounds i32, ptr %8, i64 %11
  %13 = load i32, ptr %12, align 4
  %14 = or i32 %13, %7
  store i32 %14, ptr %12, align 4
  ret void
}

; Function Attrs: nounwind uwtable
define internal i32 @Abc_InfoHasBit(ptr noundef %0, i32 noundef %1) #0 {
  %3 = alloca ptr, align 8
  %4 = alloca i32, align 4
  store ptr %0, ptr %3, align 8
  store i32 %1, ptr %4, align 4
  %5 = load ptr, ptr %3, align 8
  %6 = load i32, ptr %4, align 4
  %7 = ashr i32 %6, 5
  %8 = sext i32 %7 to i64
  %9 = getelementptr inbounds i32, ptr %5, i64 %8
  %10 = load i32, ptr %9, align 4
  %11 = load i32, ptr %4, align 4
  %12 = and i32 %11, 31
  %13 = shl i32 1, %12
  %14 = and i32 %10, %13
  %15 = icmp ugt i32 %14, 0
  %16 = zext i1 %15 to i32
  ret i32 %16
}

; Function Attrs: nounwind uwtable
define internal i32 @Vec_IntEntry(ptr noundef %0, i32 noundef %1) #0 {
  %3 = alloca ptr, align 8
  %4 = alloca i32, align 4
  store ptr %0, ptr %3, align 8
  store i32 %1, ptr %4, align 4
  %5 = load ptr, ptr %3, align 8
  %6 = getelementptr inbounds %struct.Vec_Int_t_, ptr %5, i32 0, i32 2
  %7 = load ptr, ptr %6, align 8
  %8 = load i32, ptr %4, align 4
  %9 = sext i32 %8 to i64
  %10 = getelementptr inbounds i32, ptr %7, i64 %9
  %11 = load i32, ptr %10, align 4
  ret i32 %11
}

; Function Attrs: nounwind uwtable
define internal i32 @Aig_ManCiNum(ptr noundef %0) #0 {
  %2 = alloca ptr, align 8
  store ptr %0, ptr %2, align 8
  %3 = load ptr, ptr %2, align 8
  %4 = getelementptr inbounds %struct.Aig_Man_t_, ptr %3, i32 0, i32 14
  %5 = getelementptr inbounds [7 x i32], ptr %4, i64 0, i64 2
  %6 = load i32, ptr %5, align 8
  ret i32 %6
}

; Function Attrs: nounwind uwtable
define internal i32 @Saig_ManPiNum(ptr noundef %0) #0 {
  %2 = alloca ptr, align 8
  store ptr %0, ptr %2, align 8
  %3 = load ptr, ptr %2, align 8
  %4 = getelementptr inbounds %struct.Aig_Man_t_, ptr %3, i32 0, i32 9
  %5 = load i32, ptr %4, align 4
  ret i32 %5
}

; Function Attrs: nounwind uwtable
define internal i32 @Aig_ManRegNum(ptr noundef %0) #0 {
  %2 = alloca ptr, align 8
  store ptr %0, ptr %2, align 8
  %3 = load ptr, ptr %2, align 8
  %4 = getelementptr inbounds %struct.Aig_Man_t_, ptr %3, i32 0, i32 8
  %5 = load i32, ptr %4, align 8
  ret i32 %5
}

; Function Attrs: nounwind uwtable
define ptr @Raig_ManGenerateCounter(ptr noundef %0, i32 noundef %1, i32 noundef %2, i32 noundef %3, i32 noundef %4, ptr noundef %5) #0 {
  %7 = alloca ptr, align 8
  %8 = alloca i32, align 4
  %9 = alloca i32, align 4
  %10 = alloca i32, align 4
  %11 = alloca i32, align 4
  %12 = alloca ptr, align 8
  %13 = alloca ptr, align 8
  %14 = alloca ptr, align 8
  %15 = alloca i32, align 4
  %16 = alloca i32, align 4
  %17 = alloca i32, align 4
  %18 = alloca i32, align 4
  %19 = alloca i32, align 4
  store ptr %0, ptr %7, align 8
  store i32 %1, ptr %8, align 4
  store i32 %2, ptr %9, align 4
  store i32 %3, ptr %10, align 4
  store i32 %4, ptr %11, align 4
  store ptr %5, ptr %12, align 8
  %20 = load ptr, ptr %7, align 8
  %21 = call i32 @Aig_ManRegNum(ptr noundef %20)
  %22 = load ptr, ptr %7, align 8
  %23 = call i32 @Saig_ManPiNum(ptr noundef %22)
  %24 = load i32, ptr %8, align 4
  %25 = add nsw i32 %24, 1
  %26 = call ptr @Abc_CexAlloc(i32 noundef %21, i32 noundef %23, i32 noundef %25)
  store ptr %26, ptr %13, align 8
  %27 = load i32, ptr %8, align 4
  %28 = load ptr, ptr %13, align 8
  %29 = getelementptr inbounds %struct.Abc_Cex_t_, ptr %28, i32 0, i32 1
  store i32 %27, ptr %29, align 4
  %30 = load i32, ptr %9, align 4
  %31 = load ptr, ptr %13, align 8
  %32 = getelementptr inbounds %struct.Abc_Cex_t_, ptr %31, i32 0, i32 0
  store i32 %30, ptr %32, align 4
  %33 = call i32 @Aig_ManRandom(i32 noundef 1)
  %34 = load ptr, ptr %13, align 8
  %35 = getelementptr inbounds %struct.Abc_Cex_t_, ptr %34, i32 0, i32 2
  %36 = load i32, ptr %35, align 4
  store i32 %36, ptr %19, align 4
  %37 = load i32, ptr %10, align 4
  %38 = sext i32 %37 to i64
  %39 = mul i64 4, %38
  %40 = call noalias ptr @malloc(i64 noundef %39) #11
  store ptr %40, ptr %14, align 8
  store i32 0, ptr %15, align 4
  br label %41

41:                                               ; preds = %92, %6
  %42 = load i32, ptr %15, align 4
  %43 = load i32, ptr %8, align 4
  %44 = icmp sle i32 %42, %43
  br i1 %44, label %45, label %100

45:                                               ; preds = %41
  store i32 0, ptr %16, align 4
  br label %46

46:                                               ; preds = %88, %45
  %47 = load i32, ptr %16, align 4
  %48 = load ptr, ptr %7, align 8
  %49 = call i32 @Aig_ManCiNum(ptr noundef %48)
  %50 = icmp slt i32 %47, %49
  br i1 %50, label %51, label %91

51:                                               ; preds = %46
  %52 = load ptr, ptr %12, align 8
  %53 = load i32, ptr %16, align 4
  %54 = call i32 @Vec_IntEntry(ptr noundef %52, i32 noundef %53)
  store i32 %54, ptr %18, align 4
  %55 = load i32, ptr %18, align 4
  %56 = load ptr, ptr %13, align 8
  %57 = getelementptr inbounds %struct.Abc_Cex_t_, ptr %56, i32 0, i32 3
  %58 = load i32, ptr %57, align 4
  %59 = icmp sge i32 %55, %58
  br i1 %59, label %60, label %61

60:                                               ; preds = %51
  br label %88

61:                                               ; preds = %51
  store i32 0, ptr %17, align 4
  br label %62

62:                                               ; preds = %72, %61
  %63 = load i32, ptr %17, align 4
  %64 = load i32, ptr %10, align 4
  %65 = icmp slt i32 %63, %64
  br i1 %65, label %66, label %75

66:                                               ; preds = %62
  %67 = call i32 @Aig_ManRandom(i32 noundef 0)
  %68 = load ptr, ptr %14, align 8
  %69 = load i32, ptr %17, align 4
  %70 = sext i32 %69 to i64
  %71 = getelementptr inbounds i32, ptr %68, i64 %70
  store i32 %67, ptr %71, align 4
  br label %72

72:                                               ; preds = %66
  %73 = load i32, ptr %17, align 4
  %74 = add nsw i32 %73, 1
  store i32 %74, ptr %17, align 4
  br label %62, !llvm.loop !23

75:                                               ; preds = %62
  %76 = load ptr, ptr %14, align 8
  %77 = load i32, ptr %11, align 4
  %78 = call i32 @Abc_InfoHasBit(ptr noundef %76, i32 noundef %77)
  %79 = icmp ne i32 %78, 0
  br i1 %79, label %80, label %87

80:                                               ; preds = %75
  %81 = load ptr, ptr %13, align 8
  %82 = getelementptr inbounds %struct.Abc_Cex_t_, ptr %81, i32 0, i32 5
  %83 = getelementptr inbounds [0 x i32], ptr %82, i64 0, i64 0
  %84 = load i32, ptr %19, align 4
  %85 = load i32, ptr %18, align 4
  %86 = add nsw i32 %84, %85
  call void @Abc_InfoSetBit(ptr noundef %83, i32 noundef %86)
  br label %87

87:                                               ; preds = %80, %75
  br label %88

88:                                               ; preds = %87, %60
  %89 = load i32, ptr %16, align 4
  %90 = add nsw i32 %89, 1
  store i32 %90, ptr %16, align 4
  br label %46, !llvm.loop !24

91:                                               ; preds = %46
  br label %92

92:                                               ; preds = %91
  %93 = load i32, ptr %15, align 4
  %94 = add nsw i32 %93, 1
  store i32 %94, ptr %15, align 4
  %95 = load ptr, ptr %13, align 8
  %96 = getelementptr inbounds %struct.Abc_Cex_t_, ptr %95, i32 0, i32 3
  %97 = load i32, ptr %96, align 4
  %98 = load i32, ptr %19, align 4
  %99 = add nsw i32 %98, %97
  store i32 %99, ptr %19, align 4
  br label %41, !llvm.loop !25

100:                                              ; preds = %41
  %101 = load ptr, ptr %14, align 8
  %102 = icmp ne ptr %101, null
  br i1 %102, label %103, label %105

103:                                              ; preds = %100
  %104 = load ptr, ptr %14, align 8
  call void @free(ptr noundef %104) #13
  store ptr null, ptr %14, align 8
  br label %106

105:                                              ; preds = %100
  br label %106

106:                                              ; preds = %105, %103
  %107 = load ptr, ptr %13, align 8
  ret ptr %107
}