; Function Attrs: nounwind uwtable
define noundef ptr @Raig_ManGenerateCounter(ptr noundef readonly captures(none) %0, i32 noundef %1, i32 noundef %2, i32 noundef %3, i32 noundef %4, ptr noundef readonly captures(none) %5) local_unnamed_addr #1 {
  %7 = getelementptr i8, ptr %0, i64 104
  %.val42 = load i32, ptr %7, align 8
  %8 = getelementptr i8, ptr %0, i64 108
  %.val = load i32, ptr %8, align 4
  %9 = add i32 %1, 1
  %10 = tail call ptr @Abc_CexAlloc(i32 noundef %.val42, i32 noundef %.val, i32 noundef %9) #18
  %11 = getelementptr inbounds nuw i8, ptr %10, i64 4
  store i32 %1, ptr %11, align 4
  store i32 %2, ptr %10, align 4
  %12 = tail call i32 @Aig_ManRandom(i32 noundef 1) #18
  %13 = getelementptr inbounds nuw i8, ptr %10, i64 8
  %14 = load i32, ptr %13, align 4
  %15 = sext i32 %3 to i64
  %16 = shl nsw i64 %15, 2
  %17 = tail call noalias ptr @malloc(i64 noundef %16) #17
  %.not50 = icmp slt i32 %1, 0
  br i1 %.not50, label %._crit_edge, label %.preheader44.lr.ph

.preheader44.lr.ph:                               ; preds = %6
  %18 = getelementptr i8, ptr %0, i64 136
  %19 = getelementptr i8, ptr %5, i64 8
  %20 = getelementptr inbounds nuw i8, ptr %10, i64 12
  %21 = icmp sgt i32 %3, 0
  %22 = ashr i32 %4, 5
  %23 = sext i32 %22 to i64
  %24 = getelementptr inbounds i32, ptr %17, i64 %23
  %25 = and i32 %4, 31
  %26 = shl nuw i32 1, %25
  %27 = getelementptr inbounds nuw i8, ptr %10, i64 20
  %28 = load i32, ptr %18, align 8
  %29 = icmp sgt i32 %28, 0
  br i1 %29, label %.preheader44.preheader, label %._crit_edge

.preheader44.preheader:                           ; preds = %.preheader44.lr.ph
  %wide.trip.count = zext nneg i32 %3 to i64
  br label %.preheader44

.preheader44:                                     ; preds = %.preheader44.preheader, %._crit_edge49
  %.val4166 = phi i32 [ %.val4167, %._crit_edge49 ], [ %28, %.preheader44.preheader ]
  %.val4146 = phi i32 [ %.val414664, %._crit_edge49 ], [ %28, %.preheader44.preheader ]
  %.052 = phi i32 [ %69, %._crit_edge49 ], [ %14, %.preheader44.preheader ]
  %.03551 = phi i32 [ %67, %._crit_edge49 ], [ 0, %.preheader44.preheader ]
  %30 = icmp sgt i32 %.val4146, 0
  br i1 %30, label %.lr.ph48, label %._crit_edge49

.lr.ph48:                                         ; preds = %.preheader44
  br i1 %21, label %.lr.ph48.split.us, label %.lr.ph48.split

.lr.ph48.split.us:                                ; preds = %.lr.ph48, %43
  %indvars.iv60 = phi i64 [ %indvars.iv.next61, %43 ], [ 0, %.lr.ph48 ]
  %.val43.us = load ptr, ptr %19, align 8
  %31 = getelementptr inbounds nuw i32, ptr %.val43.us, i64 %indvars.iv60
  %32 = load i32, ptr %31, align 4
  %33 = load i32, ptr %20, align 4
  %.not39.us = icmp slt i32 %32, %33
  br i1 %.not39.us, label %.preheader.us, label %43

34:                                               ; preds = %._crit_edge.us
  %35 = add nsw i32 %32, %.052
  %36 = and i32 %35, 31
  %37 = shl nuw i32 1, %36
  %38 = ashr i32 %35, 5
  %39 = sext i32 %38 to i64
  %40 = getelementptr inbounds i32, ptr %27, i64 %39
  %41 = load i32, ptr %40, align 4
  %42 = or i32 %41, %37
  store i32 %42, ptr %40, align 4
  br label %43

43:                                               ; preds = %34, %._crit_edge.us, %.lr.ph48.split.us
  %indvars.iv.next61 = add nuw nsw i64 %indvars.iv60, 1
  %.val41.us = load i32, ptr %18, align 8
  %44 = sext i32 %.val41.us to i64
  %45 = icmp slt i64 %indvars.iv.next61, %44
  br i1 %45, label %.lr.ph48.split.us, label %._crit_edge49, !llvm.loop !23

.preheader.us:                                    ; preds = %.lr.ph48.split.us, %.preheader.us
  %indvars.iv57 = phi i64 [ %indvars.iv.next58, %.preheader.us ], [ 0, %.lr.ph48.split.us ]
  %46 = tail call i32 @Aig_ManRandom(i32 noundef 0) #18
  %47 = getelementptr inbounds nuw i32, ptr %17, i64 %indvars.iv57
  store i32 %46, ptr %47, align 4
  %indvars.iv.next58 = add nuw nsw i64 %indvars.iv57, 1
  %exitcond.not = icmp eq i64 %indvars.iv.next58, %wide.trip.count
  br i1 %exitcond.not, label %._crit_edge.us, label %.preheader.us, !llvm.loop !24

._crit_edge.us:                                   ; preds = %.preheader.us
  %48 = load i32, ptr %24, align 4
  %49 = and i32 %48, %26
  %.not40.us = icmp eq i32 %49, 0
  br i1 %.not40.us, label %43, label %34

.lr.ph48.split:                                   ; preds = %.lr.ph48, %64
  %.val4168 = phi i32 [ %.val41, %64 ], [ %.val4166, %.lr.ph48 ]
  %indvars.iv = phi i64 [ %indvars.iv.next, %64 ], [ 0, %.lr.ph48 ]
  %.val43 = load ptr, ptr %19, align 8
  %50 = getelementptr inbounds nuw i32, ptr %.val43, i64 %indvars.iv
  %51 = load i32, ptr %50, align 4
  %52 = load i32, ptr %20, align 4
  %.not39 = icmp slt i32 %51, %52
  br i1 %.not39, label %.preheader, label %64

.preheader:                                       ; preds = %.lr.ph48.split
  %53 = load i32, ptr %24, align 4
  %54 = and i32 %53, %26
  %.not40 = icmp eq i32 %54, 0
  br i1 %.not40, label %64, label %55

55:                                               ; preds = %.preheader
  %56 = add nsw i32 %51, %.052
  %57 = and i32 %56, 31
  %58 = shl nuw i32 1, %57
  %59 = ashr i32 %56, 5
  %60 = sext i32 %59 to i64
  %61 = getelementptr inbounds i32, ptr %27, i64 %60
  %62 = load i32, ptr %61, align 4
  %63 = or i32 %62, %58
  store i32 %63, ptr %61, align 4
  %.val41.pre = load i32, ptr %18, align 8
  br label %64

64:                                               ; preds = %.preheader, %55, %.lr.ph48.split
  %.val41 = phi i32 [ %.val4168, %.preheader ], [ %.val41.pre, %55 ], [ %.val4168, %.lr.ph48.split ]
  %indvars.iv.next = add nuw nsw i64 %indvars.iv, 1
  %65 = sext i32 %.val41 to i64
  %66 = icmp slt i64 %indvars.iv.next, %65
  br i1 %66, label %.lr.ph48.split, label %._crit_edge49, !llvm.loop !23

._crit_edge49:                                    ; preds = %64, %43, %.preheader44
  %.val4167 = phi i32 [ %.val4166, %.preheader44 ], [ %.val41.us, %43 ], [ %.val41, %64 ]
  %.val414664 = phi i32 [ %.val4146, %.preheader44 ], [ %.val41.us, %43 ], [ %.val41, %64 ]
  %67 = add nuw i32 %.03551, 1
  %68 = load i32, ptr %20, align 4
  %69 = add nsw i32 %68, %.052
  %exitcond63.not = icmp eq i32 %.03551, %1
  br i1 %exitcond63.not, label %._crit_edge, label %.preheader44, !llvm.loop !25

._crit_edge:                                      ; preds = %._crit_edge49, %.preheader44.lr.ph, %6
  %.not38 = icmp eq ptr %17, null
  br i1 %.not38, label %71, label %70

70:                                               ; preds = %._crit_edge
  tail call void @free(ptr noundef nonnull %17) #18
  br label %71

71:                                               ; preds = %._crit_edge, %70
  ret ptr %10
}